; Function Attrs: mustprogress nofree norecurse nosync nounwind willreturn memory(read, argmem: readwrite, inaccessiblemem: none) uwtable
define hidden range(i32 0, 2) i32 @CBS_get_u8(ptr noundef captures(none) %0, ptr noundef writeonly captures(none) %1) local_unnamed_addr #9 {
  %3 = getelementptr inbounds nuw i8, ptr %0, i64 8
  %4 = load i64, ptr %3, align 8, !tbaa !13
  %5 = icmp eq i64 %4, 0
  br i1 %5, label %cbs_get.exit.thread, label %6

6:                                                ; preds = %2
  %7 = load ptr, ptr %0, align 8, !tbaa !6
  %8 = getelementptr inbounds nuw i8, ptr %7, i64 1
  store ptr %8, ptr %0, align 8, !tbaa !6
  %9 = add i64 %4, -1
  store i64 %9, ptr %3, align 8, !tbaa !13
  %10 = load i8, ptr %7, align 1, !tbaa !16
  store i8 %10, ptr %1, align 1, !tbaa !16
  br label %cbs_get.exit.thread

cbs_get.exit.thread:                              ; preds = %2, %6
  %.0 = phi i32 [ 1, %6 ], [ 0, %2 ]
  ret i32 %.0
}